; Function Attrs: nounwind uwtable
define void @Ssw_ReportOutputs(ptr noundef readonly captures(none) %0) local_unnamed_addr #2 {
  %2 = getelementptr i8, ptr %0, i64 112
  %.val13 = load i32, ptr %2, align 8
  %3 = icmp sgt i32 %.val13, 0
  br i1 %3, label %.lr.ph, label %.critedge

.lr.ph:                                           ; preds = %1
  %4 = getelementptr inbounds nuw i8, ptr %0, i64 24
  %5 = getelementptr i8, ptr %0, i64 120
  %6 = getelementptr i8, ptr %0, i64 48
  br label %7

7:                                                ; preds = %.lr.ph, %7
  %indvars.iv = phi i64 [ 0, %.lr.ph ], [ %indvars.iv.next, %7 ]
  %.val15 = phi i32 [ %.val13, %.lr.ph ], [ %.val, %7 ]
  %8 = load ptr, ptr %4, align 8
  %9 = getelementptr i8, ptr %8, i64 8
  %.val10 = load ptr, ptr %9, align 8
  %10 = getelementptr inbounds nuw ptr, ptr %.val10, i64 %indvars.iv
  %11 = load ptr, ptr %10, align 8
  %.val11 = load i32, ptr %5, align 8
  %12 = sub nsw i32 %.val15, %.val11
  %13 = sext i32 %12 to i64
  %14 = icmp slt i64 %indvars.iv, %13
  %.str.3..str.4 = select i1 %14, ptr @.str.3, ptr @.str.4
  tail call void (i32, ptr, ...) @Abc_Print(i32 poison, ptr noundef nonnull %.str.3..str.4)
  %15 = getelementptr i8, ptr %11, i64 8
  %.val12 = load ptr, ptr %15, align 8
  %.val.i = load ptr, ptr %6, align 8
  %16 = icmp eq ptr %.val12, %.val.i
  %17 = ptrtoint ptr %.val.i to i64
  %18 = xor i64 %17, 1
  %19 = inttoptr i64 %18 to ptr
  %20 = icmp eq ptr %.val12, %19
  %.str.1..str.2.i = select i1 %20, ptr @.str.1, ptr @.str.2
  %.str.1.sink.i = select i1 %16, ptr @.str, ptr %.str.1..str.2.i
  tail call void (i32, ptr, ...) @Abc_Print(i32 poison, ptr noundef nonnull %.str.1.sink.i)
  %indvars.iv.next = add nuw nsw i64 %indvars.iv, 1
  %.val = load i32, ptr %2, align 8
  %21 = sext i32 %.val to i64
  %22 = icmp slt i64 %indvars.iv.next, %21
  br i1 %22, label %7, label %.critedge, !llvm.loop !4

.critedge:                                        ; preds = %7, %1
  tail call void (i32, ptr, ...) @Abc_Print(i32 poison, ptr noundef nonnull @.str.5)
  ret void
}